; Function Attrs: mustprogress nofree norecurse nosync nounwind willreturn memory(argmem: read) uwtable
define hidden noundef zeroext i1 @_ZNK4ncnn6CpuSet10is_enabledEi(ptr noundef nonnull readonly align 8 captures(none) dereferenceable(128) %0, i32 noundef %1) local_unnamed_addr #4 align 2 {
  %3 = icmp ult i32 %1, 1024
  br i1 %3, label %4, label %13

4:                                                ; preds = %2
  %5 = zext nneg i32 %1 to i64
  %6 = lshr i64 %5, 6
  %7 = getelementptr inbounds nuw i64, ptr %0, i64 %6
  %8 = load i64, ptr %7, align 8, !tbaa !4
  %9 = and i64 %5, 63
  %10 = shl nuw i64 1, %9
  %11 = and i64 %8, %10
  %12 = icmp ne i64 %11, 0
  br label %13

13:                                               ; preds = %2, %4
  %14 = phi i1 [ %12, %4 ], [ false, %2 ]
  ret i1 %14
}